; Function Attrs: mustprogress uwtable
define hidden noundef zeroext i1 @_ZN4lean12type_checker9is_def_eqERKNS_8list_refINS_5levelEEES5_(ptr nonnull readnone align 8 captures(none) %0, ptr noundef nonnull readonly align 8 captures(none) dereferenceable(8) %1, ptr noundef nonnull readonly align 8 captures(none) dereferenceable(8) %2) local_unnamed_addr #0 align 2 {
  %4 = load ptr, ptr %1, align 8, !tbaa !3
  %5 = ptrtoint ptr %4 to i64
  %6 = and i64 %5, 1
  %.not14 = icmp eq i64 %6, 0
  br i1 %.not14, label %.lr.ph, label %tailrecurse._crit_edge

tailrecurse._crit_edge:                           ; preds = %tailrecurse, %3
  %.tr12.lcssa = phi ptr [ %2, %3 ], [ %22, %tailrecurse ]
  %7 = load ptr, ptr %.tr12.lcssa, align 8, !tbaa !3
  %8 = ptrtoint ptr %7 to i64
  %9 = and i64 %8, 1
  %10 = icmp ne i64 %9, 0
  br label %.thread

.lr.ph:                                           ; preds = %3, %tailrecurse
  %11 = phi ptr [ %23, %tailrecurse ], [ %4, %3 ]
  %.tr1216 = phi ptr [ %22, %tailrecurse ], [ %2, %3 ]
  %.tr1115 = phi ptr [ %20, %tailrecurse ], [ %1, %3 ]
  %12 = load ptr, ptr %.tr1216, align 8, !tbaa !3
  %13 = ptrtoint ptr %12 to i64
  %14 = and i64 %13, 1
  %.not10 = icmp eq i64 %14, 0
  br i1 %.not10, label %15, label %.thread

15:                                               ; preds = %.lr.ph
  %16 = getelementptr inbounds nuw i8, ptr %11, i64 8
  %17 = getelementptr inbounds nuw i8, ptr %12, i64 8
  %18 = tail call noundef zeroext i1 @_ZN4lean13is_equivalentERKNS_5levelES2_(ptr noundef nonnull align 8 dereferenceable(8) %16, ptr noundef nonnull align 8 dereferenceable(8) %17)
  br i1 %18, label %tailrecurse, label %.thread

tailrecurse:                                      ; preds = %15
  %19 = load ptr, ptr %.tr1115, align 8, !tbaa !3
  %20 = getelementptr inbounds nuw i8, ptr %19, i64 16
  %21 = load ptr, ptr %.tr1216, align 8, !tbaa !3
  %22 = getelementptr inbounds nuw i8, ptr %21, i64 16
  %23 = load ptr, ptr %20, align 8, !tbaa !3
  %24 = ptrtoint ptr %23 to i64
  %25 = and i64 %24, 1
  %.not = icmp eq i64 %25, 0
  br i1 %.not, label %.lr.ph, label %tailrecurse._crit_edge

.thread:                                          ; preds = %.lr.ph, %15, %tailrecurse._crit_edge
  %.0 = phi i1 [ %10, %tailrecurse._crit_edge ], [ false, %15 ], [ false, %.lr.ph ]
  ret i1 %.0
}